; Function Attrs: nounwind uwtable
define ptr @l_Lean_PersistentHashSet_toList___rarg___boxed(ptr noundef %0, ptr noundef %1, ptr noundef %2) #0 {
  %4 = tail call ptr @l_Lean_PersistentHashMap_toList___rarg(ptr noundef %0, ptr noundef %1, ptr noundef %2) #3
  %5 = tail call ptr @l_List_mapTR_loop___at_Lean_PersistentHashSet_toList___spec__1___rarg(ptr noundef %4, ptr noundef nonnull inttoptr (i64 1 to ptr))
  %6 = ptrtoint ptr %2 to i64
  %7 = and i64 %6, 1
  %.not = icmp eq i64 %7, 0
  br i1 %.not, label %8, label %lean_dec.exit8

8:                                                ; preds = %3
  %9 = load i32, ptr %2, align 4, !tbaa !4
  %10 = icmp sgt i32 %9, 1
  br i1 %10, label %11, label %13, !prof !13

11:                                               ; preds = %8
  %12 = add nsw i32 %9, -1
  store i32 %12, ptr %2, align 4, !tbaa !4
  br label %lean_dec.exit8

13:                                               ; preds = %8
  %.not.i = icmp eq i32 %9, 0
  br i1 %.not.i, label %lean_dec.exit8, label %14

14:                                               ; preds = %13
  tail call void @lean_dec_ref_cold(ptr noundef nonnull %2) #3
  br label %lean_dec.exit8

lean_dec.exit8:                                   ; preds = %14, %13, %11, %3
  %15 = ptrtoint ptr %1 to i64
  %16 = and i64 %15, 1
  %.not13 = icmp eq i64 %16, 0
  br i1 %.not13, label %17, label %lean_dec.exit7

17:                                               ; preds = %lean_dec.exit8
  %18 = load i32, ptr %1, align 4, !tbaa !4
  %19 = icmp sgt i32 %18, 1
  br i1 %19, label %20, label %22, !prof !13

20:                                               ; preds = %17
  %21 = add nsw i32 %18, -1
  store i32 %21, ptr %1, align 4, !tbaa !4
  br label %lean_dec.exit7

22:                                               ; preds = %17
  %.not.i9 = icmp eq i32 %18, 0
  br i1 %.not.i9, label %lean_dec.exit7, label %23

23:                                               ; preds = %22
  tail call void @lean_dec_ref_cold(ptr noundef nonnull %1) #3
  br label %lean_dec.exit7

lean_dec.exit7:                                   ; preds = %23, %22, %20, %lean_dec.exit8
  %24 = ptrtoint ptr %0 to i64
  %25 = and i64 %24, 1
  %.not14 = icmp eq i64 %25, 0
  br i1 %.not14, label %26, label %lean_dec.exit

26:                                               ; preds = %lean_dec.exit7
  %27 = load i32, ptr %0, align 4, !tbaa !4
  %28 = icmp sgt i32 %27, 1
  br i1 %28, label %29, label %31, !prof !13

29:                                               ; preds = %26
  %30 = add nsw i32 %27, -1
  store i32 %30, ptr %0, align 4, !tbaa !4
  br label %lean_dec.exit

31:                                               ; preds = %26
  %.not.i11 = icmp eq i32 %27, 0
  br i1 %.not.i11, label %lean_dec.exit, label %32

32:                                               ; preds = %31
  tail call void @lean_dec_ref_cold(ptr noundef nonnull %0) #3
  br label %lean_dec.exit

lean_dec.exit:                                    ; preds = %32, %31, %29, %lean_dec.exit7
  ret ptr %5
}